; Function Attrs: mustprogress nounwind uwtable
define void @_ZN3gmx26AnalysisDataLifetimeModuleD2Ev(ptr noundef nonnull align 8 dereferenceable(112) %0) unnamed_addr #0 align 2 personality ptr @__gxx_personality_v0 {
  store ptr getelementptr inbounds inrange(-16, 88) ({ [13 x ptr], [12 x ptr] }, ptr @_ZTVN3gmx26AnalysisDataLifetimeModuleE, i64 0, i32 0, i64 2), ptr %0, align 8
  %2 = getelementptr inbounds i8, ptr %0, i64 96
  store ptr getelementptr inbounds inrange(-16, 80) ({ [13 x ptr], [12 x ptr] }, ptr @_ZTVN3gmx26AnalysisDataLifetimeModuleE, i64 0, i32 1, i64 2), ptr %2, align 8
  %3 = getelementptr inbounds i8, ptr %0, i64 104
  %4 = load ptr, ptr %3, align 8
  %.not.i = icmp eq ptr %4, null
  br i1 %.not.i, label %_ZNSt10unique_ptrIN3gmx26AnalysisDataLifetimeModule4ImplESt14default_deleteIS2_EED2Ev.exit, label %_ZNKSt14default_deleteIN3gmx26AnalysisDataLifetimeModule4ImplEEclEPS2_.exit.i

_ZNKSt14default_deleteIN3gmx26AnalysisDataLifetimeModule4ImplEEclEPS2_.exit.i: ; preds = %1
  tail call void @_ZN3gmx26AnalysisDataLifetimeModule4ImplD2Ev(ptr noundef nonnull align 8 dereferenceable(64) %4) #18
  tail call void @_ZdlPv(ptr noundef nonnull %4) #19
  br label %_ZNSt10unique_ptrIN3gmx26AnalysisDataLifetimeModule4ImplESt14default_deleteIS2_EED2Ev.exit

_ZNSt10unique_ptrIN3gmx26AnalysisDataLifetimeModule4ImplESt14default_deleteIS2_EED2Ev.exit: ; preds = %1, %_ZNKSt14default_deleteIN3gmx26AnalysisDataLifetimeModule4ImplEEclEPS2_.exit.i
  store ptr null, ptr %3, align 8
  tail call void @_ZN3gmx25AbstractAnalysisArrayDataD2Ev(ptr noundef nonnull align 8 dereferenceable(94) %0) #18
  ret void
}